; Function Attrs: mustprogress uwtable
define internal void @"_ZNSt17_Function_handlerIF11cmCMakePathRKS0_bEZN12_GLOBAL__N_116HandleGetCommandERKSt6vectorINSt7__cxx1112basic_stringIcSt11char_traitsIcESaIcEEESaISB_EER17cmExecutionStatusE3$_5E9_M_invokeERKSt9_Any_dataS2_Ob"(ptr dead_on_unwind noalias writable sret(%class.cmCMakePath) align 8 %0, ptr nonnull readnone align 8 captures(none) %1, ptr noundef nonnull align 8 dereferenceable(40) %2, ptr noundef nonnull readonly align 1 captures(none) dereferenceable(1) %3) #3 align 2 {
  %.val = load i8, ptr %3, align 1
  %5 = trunc i8 %.val to i1
  br i1 %5, label %6, label %7

6:                                                ; preds = %4
  tail call void @_ZNK11cmCMakePath7GetStemEv(ptr dead_on_unwind writable sret(%class.cmCMakePath) align 8 %0, ptr noundef nonnull align 8 dereferenceable(40) %2)
  br label %"_ZSt10__invoke_rI11cmCMakePathRZN12_GLOBAL__N_116HandleGetCommandERKSt6vectorINSt7__cxx1112basic_stringIcSt11char_traitsIcESaIcEEESaIS8_EER17cmExecutionStatusE3$_5JRKS0_bEENSt9enable_ifIX16is_invocable_r_vIT_T0_DpT1_EESK_E4typeEOSL_DpOSM_.exit"

7:                                                ; preds = %4
  tail call void @_ZNK11cmCMakePath13GetNarrowStemEv(ptr dead_on_unwind writable sret(%class.cmCMakePath) align 8 %0, ptr noundef nonnull align 8 dereferenceable(40) %2)
  br label %"_ZSt10__invoke_rI11cmCMakePathRZN12_GLOBAL__N_116HandleGetCommandERKSt6vectorINSt7__cxx1112basic_stringIcSt11char_traitsIcESaIcEEESaIS8_EER17cmExecutionStatusE3$_5JRKS0_bEENSt9enable_ifIX16is_invocable_r_vIT_T0_DpT1_EESK_E4typeEOSL_DpOSM_.exit"

"_ZSt10__invoke_rI11cmCMakePathRZN12_GLOBAL__N_116HandleGetCommandERKSt6vectorINSt7__cxx1112basic_stringIcSt11char_traitsIcESaIcEEESaIS8_EER17cmExecutionStatusE3$_5JRKS0_bEENSt9enable_ifIX16is_invocable_r_vIT_T0_DpT1_EESK_E4typeEOSL_DpOSM_.exit": ; preds = %6, %7
  ret void
}